; Function Attrs: nounwind memory(readwrite, argmem: read) uwtable
define internal fastcc range(i32 0, 2) i32 @arkode_butcher_order5i(ptr noundef readonly captures(address_is_null) %0, ptr noundef readonly captures(address_is_null) %1, ptr noundef readonly captures(address_is_null) %2, ptr noundef readonly captures(address_is_null) %3, ptr noundef readonly captures(address_is_null) %4, i32 noundef %5) unnamed_addr #10 {
  %7 = sext i32 %5 to i64
  %8 = tail call noalias ptr @calloc(i64 noundef %7, i64 noundef 8) #16
  %9 = tail call noalias ptr @calloc(i64 noundef %7, i64 noundef 8) #16
  %10 = icmp eq ptr %3, null
  %11 = icmp eq ptr %4, null
  %or.cond.i = or i1 %10, %11
  %12 = icmp eq ptr %8, null
  %or.cond3.i = or i1 %or.cond.i, %12
  %13 = icmp slt i32 %5, 1
  %or.cond5.i = or i1 %13, %or.cond3.i
  br i1 %or.cond5.i, label %arkode_butcher_mv.exit, label %.preheader.us.preheader.i

.preheader.us.preheader.i:                        ; preds = %6
  %14 = zext nneg i32 %5 to i64
  %15 = shl nuw nsw i64 %14, 3
  br label %.preheader.us.i

.preheader.us.i:                                  ; preds = %._crit_edge.us.i, %.preheader.us.preheader.i
  %indvars.iv40.i = phi i64 [ 0, %.preheader.us.preheader.i ], [ %indvars.iv.next41.i, %._crit_edge.us.i ]
  %16 = getelementptr inbounds nuw ptr, ptr %3, i64 %indvars.iv40.i
  %17 = load ptr, ptr %16, align 8, !tbaa !12
  %18 = getelementptr inbounds nuw double, ptr %8, i64 %indvars.iv40.i
  %.promoted.us.i = load double, ptr %18, align 8, !tbaa !18
  br label %19

19:                                               ; preds = %19, %.preheader.us.i
  %indvars.iv.i = phi i64 [ 0, %.preheader.us.i ], [ %indvars.iv.next.i, %19 ]
  %20 = phi double [ %.promoted.us.i, %.preheader.us.i ], [ %25, %19 ]
  %21 = getelementptr inbounds nuw double, ptr %17, i64 %indvars.iv.i
  %22 = load double, ptr %21, align 8, !tbaa !18
  %23 = getelementptr inbounds nuw double, ptr %4, i64 %indvars.iv.i
  %24 = load double, ptr %23, align 8, !tbaa !18
  %25 = tail call double @llvm.fmuladd.f64(double %22, double %24, double %20)
  %indvars.iv.next.i = add nuw nsw i64 %indvars.iv.i, 1
  %exitcond.not.i = icmp eq i64 %indvars.iv.next.i, %14
  br i1 %exitcond.not.i, label %._crit_edge.us.i, label %19

._crit_edge.us.i:                                 ; preds = %19
  store double %25, ptr %18, align 8, !tbaa !18
  %indvars.iv.next41.i = add nuw nsw i64 %indvars.iv40.i, 1
  %exitcond44.not.i = icmp eq i64 %indvars.iv.next41.i, %14
  br i1 %exitcond44.not.i, label %26, label %.preheader.us.i

arkode_butcher_mv.exit:                           ; preds = %6
  tail call void @free(ptr noundef %8) #17
  tail call void @free(ptr noundef %9) #17
  br label %arkode_butcher_dot.exit

26:                                               ; preds = %._crit_edge.us.i
  %27 = icmp eq ptr %2, null
  %28 = icmp eq ptr %9, null
  %or.cond3.i29 = or i1 %27, %28
  br i1 %or.cond3.i29, label %arkode_butcher_mv.exit42, label %.preheader.us.i32

.preheader.us.i32:                                ; preds = %26, %._crit_edge.us.i38
  %indvars.iv40.i33 = phi i64 [ %indvars.iv.next41.i39, %._crit_edge.us.i38 ], [ 0, %26 ]
  %29 = getelementptr inbounds nuw ptr, ptr %2, i64 %indvars.iv40.i33
  %30 = load ptr, ptr %29, align 8, !tbaa !12
  %31 = getelementptr inbounds nuw double, ptr %9, i64 %indvars.iv40.i33
  %.promoted.us.i34 = load double, ptr %31, align 8, !tbaa !18
  br label %32

32:                                               ; preds = %32, %.preheader.us.i32
  %indvars.iv.i35 = phi i64 [ 0, %.preheader.us.i32 ], [ %indvars.iv.next.i36, %32 ]
  %33 = phi double [ %.promoted.us.i34, %.preheader.us.i32 ], [ %38, %32 ]
  %34 = getelementptr inbounds nuw double, ptr %30, i64 %indvars.iv.i35
  %35 = load double, ptr %34, align 8, !tbaa !18
  %36 = getelementptr inbounds nuw double, ptr %8, i64 %indvars.iv.i35
  %37 = load double, ptr %36, align 8, !tbaa !18
  %38 = tail call double @llvm.fmuladd.f64(double %35, double %37, double %33)
  %indvars.iv.next.i36 = add nuw nsw i64 %indvars.iv.i35, 1
  %exitcond.not.i37 = icmp eq i64 %indvars.iv.next.i36, %14
  br i1 %exitcond.not.i37, label %._crit_edge.us.i38, label %32

._crit_edge.us.i38:                               ; preds = %32
  store double %38, ptr %31, align 8, !tbaa !18
  %indvars.iv.next41.i39 = add nuw nsw i64 %indvars.iv40.i33, 1
  %exitcond44.not.i40 = icmp eq i64 %indvars.iv.next41.i39, %14
  br i1 %exitcond44.not.i40, label %39, label %.preheader.us.i32

arkode_butcher_mv.exit42:                         ; preds = %26
  tail call void @free(ptr noundef nonnull %8) #17
  tail call void @free(ptr noundef %9) #17
  br label %arkode_butcher_dot.exit

39:                                               ; preds = %._crit_edge.us.i38
  %40 = icmp eq ptr %1, null
  br i1 %40, label %arkode_butcher_mv.exit57, label %.preheader.us.preheader.i46

.preheader.us.preheader.i46:                      ; preds = %39
  tail call void @llvm.memset.p0.i64(ptr nonnull align 8 %8, i8 0, i64 %15, i1 false), !tbaa !18
  br label %.preheader.us.i47

.preheader.us.i47:                                ; preds = %._crit_edge.us.i53, %.preheader.us.preheader.i46
  %indvars.iv40.i48 = phi i64 [ 0, %.preheader.us.preheader.i46 ], [ %indvars.iv.next41.i54, %._crit_edge.us.i53 ]
  %41 = getelementptr inbounds nuw ptr, ptr %1, i64 %indvars.iv40.i48
  %42 = load ptr, ptr %41, align 8, !tbaa !12
  %43 = getelementptr inbounds nuw double, ptr %8, i64 %indvars.iv40.i48
  %.promoted.us.i49 = load double, ptr %43, align 8, !tbaa !18
  br label %44

44:                                               ; preds = %44, %.preheader.us.i47
  %indvars.iv.i50 = phi i64 [ 0, %.preheader.us.i47 ], [ %indvars.iv.next.i51, %44 ]
  %45 = phi double [ %.promoted.us.i49, %.preheader.us.i47 ], [ %50, %44 ]
  %46 = getelementptr inbounds nuw double, ptr %42, i64 %indvars.iv.i50
  %47 = load double, ptr %46, align 8, !tbaa !18
  %48 = getelementptr inbounds nuw double, ptr %9, i64 %indvars.iv.i50
  %49 = load double, ptr %48, align 8, !tbaa !18
  %50 = tail call double @llvm.fmuladd.f64(double %47, double %49, double %45)
  %indvars.iv.next.i51 = add nuw nsw i64 %indvars.iv.i50, 1
  %exitcond.not.i52 = icmp eq i64 %indvars.iv.next.i51, %14
  br i1 %exitcond.not.i52, label %._crit_edge.us.i53, label %44

._crit_edge.us.i53:                               ; preds = %44
  store double %50, ptr %43, align 8, !tbaa !18
  %indvars.iv.next41.i54 = add nuw nsw i64 %indvars.iv40.i48, 1
  %exitcond44.not.i55 = icmp eq i64 %indvars.iv.next41.i54, %14
  br i1 %exitcond44.not.i55, label %51, label %.preheader.us.i47

arkode_butcher_mv.exit57:                         ; preds = %39
  tail call void @free(ptr noundef nonnull %8) #17
  tail call void @free(ptr noundef nonnull %9) #17
  br label %arkode_butcher_dot.exit

51:                                               ; preds = %._crit_edge.us.i53
  %52 = icmp eq ptr %0, null
  br i1 %52, label %arkode_butcher_dot.exit, label %.preheader

.preheader:                                       ; preds = %51, %.preheader
  %indvars.iv.i60 = phi i64 [ %indvars.iv.next.i61, %.preheader ], [ 0, %51 ]
  %53 = phi double [ %58, %.preheader ], [ 0.000000e+00, %51 ]
  %54 = getelementptr inbounds nuw double, ptr %0, i64 %indvars.iv.i60
  %55 = load double, ptr %54, align 8, !tbaa !18
  %56 = getelementptr inbounds nuw double, ptr %8, i64 %indvars.iv.i60
  %57 = load double, ptr %56, align 8, !tbaa !18
  %58 = tail call double @llvm.fmuladd.f64(double %55, double %57, double %53)
  %indvars.iv.next.i61 = add nuw nsw i64 %indvars.iv.i60, 1
  %exitcond.not.i62 = icmp eq i64 %indvars.iv.next.i61, %14
  br i1 %exitcond.not.i62, label %59, label %.preheader

59:                                               ; preds = %.preheader
  tail call void @free(ptr noundef nonnull %8) #17
  tail call void @free(ptr noundef %9) #17
  %60 = fadd double %58, 0xBF81111111111111
  %61 = tail call double @llvm.fabs.f64(double %60)
  %62 = fcmp ule double %61, 0x3E50000000000000
  %63 = zext i1 %62 to i32
  br label %arkode_butcher_dot.exit

arkode_butcher_dot.exit:                          ; preds = %51, %59, %arkode_butcher_mv.exit57, %arkode_butcher_mv.exit42, %arkode_butcher_mv.exit
  %.0 = phi i32 [ 0, %arkode_butcher_mv.exit ], [ 0, %arkode_butcher_mv.exit42 ], [ 0, %arkode_butcher_mv.exit57 ], [ %63, %59 ], [ 0, %51 ]
  ret i32 %.0
}